target datalayout = "e-m:e-p270:32:32-p271:32:32-p272:64:64-i64:64-i128:128-f80:128-n8:16:32:64-S128"
target triple = "x86_64-pc-linux-gnu"

@proto_register_isns.ett = internal global [6 x ptr] [ptr @ett_isns, ptr @ett_isns_flags, ptr @ett_isns_payload, ptr @ett_isns_attribute, ptr @ett_isns_port, ptr @ett_isns_isnt], align 16
@.str.243 = private unnamed_addr constant [5 x i8] c"iSNS\00", align 1
@.str.244 = private unnamed_addr constant [5 x i8] c"isns\00", align 1
@proto_isns = internal global i32 0, align 4
@.str.245 = private unnamed_addr constant [9 x i8] c"isns.tcp\00", align 1
@isns_tcp_handle = internal global ptr null, align 8
@.str.246 = private unnamed_addr constant [9 x i8] c"isns.udp\00", align 1
@isns_udp_handle = internal global ptr null, align 8
@.str.247 = private unnamed_addr constant [10 x i8] c"desegment\00", align 1
@.str.248 = private unnamed_addr constant [56 x i8] c"Reassemble iSNS messages spanning multiple TCP segments\00", align 1
@.str.249 = private unnamed_addr constant [205 x i8] c"Whether the iSNS dissector should reassemble messages spanning multiple TCP segments. To use this option, you must also enable \22Allow subdissectors to reassemble TCP streams\22 in the TCP protocol settings.\00", align 1
@isns_desegment = internal global i32 1, align 4

; Function Attrs: nounwind uwtable
define hidden void @proto_register_isns() #0 {
  %1 = alloca ptr, align 8
  %2 = alloca ptr, align 8
  %3 = call i32 @proto_register_protocol(ptr noundef @.str.243, ptr noundef @.str.243, ptr noundef @.str.244)
  store i32 %3, ptr @proto_isns, align 4
  %4 = load i32, ptr @proto_isns, align 4
  call void @proto_register_field_array(i32 noundef %4, ptr noundef @proto_register_isns.hf, i32 noundef 101)
  call void @proto_register_subtree_array(ptr noundef @proto_register_isns.ett, i32 noundef 6)
  %5 = load i32, ptr @proto_isns, align 4
  %6 = call ptr @expert_register_protocol(i32 noundef %5)
  store ptr %6, ptr %2, align 8
  %7 = load ptr, ptr %2, align 8
  call void @expert_register_field_array(ptr noundef %7, ptr noundef @proto_register_isns.ei, i32 noundef 2)
  %8 = load i32, ptr @proto_isns, align 4
  %9 = call ptr @register_dissector(ptr noundef @.str.245, ptr noundef @dissect_isns_tcp, i32 noundef %8)
  store ptr %9, ptr @isns_tcp_handle, align 8
  %10 = load i32, ptr @proto_isns, align 4
  %11 = call ptr @register_dissector(ptr noundef @.str.246, ptr noundef @dissect_isns_udp, i32 noundef %10)
  store ptr %11, ptr @isns_udp_handle, align 8
  %12 = load i32, ptr @proto_isns, align 4
  %13 = call ptr @prefs_register_protocol(i32 noundef %12, ptr noundef null)
  store ptr %13, ptr %1, align 8
  %14 = load ptr, ptr %1, align 8
  call void @prefs_register_bool_preference(ptr noundef %14, ptr noundef @.str.247, ptr noundef @.str.248, ptr noundef @.str.249, ptr noundef @isns_desegment)
  ret void
}