; Function Attrs: nounwind uwtable
define hidden void @proto_register_isns() local_unnamed_addr #0 {
  %1 = tail call i32 @proto_register_protocol(ptr noundef nonnull @.str.243, ptr noundef nonnull @.str.243, ptr noundef nonnull @.str.244) #3
  store i32 %1, ptr @proto_isns, align 4
  tail call void @proto_register_field_array(i32 noundef %1, ptr noundef nonnull @proto_register_isns.hf, i32 noundef 101) #3
  tail call void @proto_register_subtree_array(ptr noundef nonnull @proto_register_isns.ett, i32 noundef 6) #3
  %2 = load i32, ptr @proto_isns, align 4
  %3 = tail call ptr @expert_register_protocol(i32 noundef %2) #3
  tail call void @expert_register_field_array(ptr noundef %3, ptr noundef nonnull @proto_register_isns.ei, i32 noundef 2) #3
  %4 = load i32, ptr @proto_isns, align 4
  %5 = tail call ptr @register_dissector(ptr noundef nonnull @.str.245, ptr noundef nonnull @dissect_isns_tcp, i32 noundef %4) #3
  store ptr %5, ptr @isns_tcp_handle, align 8
  %6 = load i32, ptr @proto_isns, align 4
  %7 = tail call ptr @register_dissector(ptr noundef nonnull @.str.246, ptr noundef nonnull @dissect_isns_udp, i32 noundef %6) #3
  store ptr %7, ptr @isns_udp_handle, align 8
  %8 = load i32, ptr @proto_isns, align 4
  %9 = tail call ptr @prefs_register_protocol(i32 noundef %8, ptr noundef null) #3
  tail call void @prefs_register_bool_preference(ptr noundef %9, ptr noundef nonnull @.str.247, ptr noundef nonnull @.str.248, ptr noundef nonnull @.str.249, ptr noundef nonnull @isns_desegment) #3
  ret void
}